target datalayout = "e-m:e-p270:32:32-p271:32:32-p272:64:64-i64:64-i128:128-f80:128-n8:16:32:64-S128"
target triple = "x86_64-pc-linux-gnu"

@hf_nfapi_timing_info_last_sfn_sf = internal global i32 0, align 4
@hf_nfapi_timing_info_time_since_last_timing_info = internal global i32 0, align 4
@hf_nfapi_timing_info_dl_config_jitter = internal global i32 0, align 4
@hf_nfapi_timing_info_tx_request_jitter = internal global i32 0, align 4
@hf_nfapi_timing_info_ul_config_jitter = internal global i32 0, align 4
@hf_nfapi_timing_info_hi_dci0_jitter = internal global i32 0, align 4
@hf_nfapi_timing_info_dl_config_latest_delay = internal global i32 0, align 4
@hf_nfapi_timing_info_tx_request_latest_delay = internal global i32 0, align 4
@hf_nfapi_timing_info_ul_config_latest_delay = internal global i32 0, align 4
@hf_nfapi_timing_info_hi_dci0_latest_delay = internal global i32 0, align 4
@hf_nfapi_timing_info_dl_config_earliest_arrival = internal global i32 0, align 4
@hf_nfapi_timing_info_tx_request_earliest_arrival = internal global i32 0, align 4
@hf_nfapi_timing_info_ul_config_earliest_arrival = internal global i32 0, align 4
@hf_nfapi_timing_info_hi_dci0_earliest_arrival = internal global i32 0, align 4

; Function Attrs: nounwind uwtable
define internal i32 @dissect_p7_timing_info_msg_id(ptr noundef %0, ptr noundef %1, ptr noundef %2, ptr noundef %3) #0 {
  %5 = alloca ptr, align 8
  %6 = alloca ptr, align 8
  %7 = alloca ptr, align 8
  %8 = alloca ptr, align 8
  %9 = alloca i32, align 4
  store ptr %0, ptr %5, align 8
  store ptr %1, ptr %6, align 8
  store ptr %2, ptr %7, align 8
  store ptr %3, ptr %8, align 8
  %10 = load ptr, ptr %5, align 8
  %11 = load ptr, ptr %6, align 8
  %12 = load ptr, ptr %7, align 8
  %13 = call i32 @dissect_p7_header(ptr noundef %10, ptr noundef %11, ptr noundef %12, ptr noundef null, ptr noundef null, ptr noundef null)
  store i32 %13, ptr %9, align 4
  %14 = load ptr, ptr %7, align 8
  %15 = load i32, ptr @hf_nfapi_timing_info_last_sfn_sf, align 4
  %16 = load ptr, ptr %5, align 8
  %17 = load i32, ptr %9, align 4
  %18 = call ptr @proto_tree_add_item(ptr noundef %14, i32 noundef %15, ptr noundef %16, i32 noundef %17, i32 noundef 4, i32 noundef 0)
  %19 = load i32, ptr %9, align 4
  %20 = add i32 %19, 4
  store i32 %20, ptr %9, align 4
  %21 = load ptr, ptr %7, align 8
  %22 = load i32, ptr @hf_nfapi_timing_info_time_since_last_timing_info, align 4
  %23 = load ptr, ptr %5, align 8
  %24 = load i32, ptr %9, align 4
  %25 = call ptr @proto_tree_add_item(ptr noundef %21, i32 noundef %22, ptr noundef %23, i32 noundef %24, i32 noundef 4, i32 noundef 0)
  %26 = load i32, ptr %9, align 4
  %27 = add i32 %26, 4
  store i32 %27, ptr %9, align 4
  %28 = load ptr, ptr %7, align 8
  %29 = load i32, ptr @hf_nfapi_timing_info_dl_config_jitter, align 4
  %30 = load ptr, ptr %5, align 8
  %31 = load i32, ptr %9, align 4
  %32 = call ptr @proto_tree_add_item(ptr noundef %28, i32 noundef %29, ptr noundef %30, i32 noundef %31, i32 noundef 4, i32 noundef 0)
  %33 = load i32, ptr %9, align 4
  %34 = add i32 %33, 4
  store i32 %34, ptr %9, align 4
  %35 = load ptr, ptr %7, align 8
  %36 = load i32, ptr @hf_nfapi_timing_info_tx_request_jitter, align 4
  %37 = load ptr, ptr %5, align 8
  %38 = load i32, ptr %9, align 4
  %39 = call ptr @proto_tree_add_item(ptr noundef %35, i32 noundef %36, ptr noundef %37, i32 noundef %38, i32 noundef 4, i32 noundef 0)
  %40 = load i32, ptr %9, align 4
  %41 = add i32 %40, 4
  store i32 %41, ptr %9, align 4
  %42 = load ptr, ptr %7, align 8
  %43 = load i32, ptr @hf_nfapi_timing_info_ul_config_jitter, align 4
  %44 = load ptr, ptr %5, align 8
  %45 = load i32, ptr %9, align 4
  %46 = call ptr @proto_tree_add_item(ptr noundef %42, i32 noundef %43, ptr noundef %44, i32 noundef %45, i32 noundef 4, i32 noundef 0)
  %47 = load i32, ptr %9, align 4
  %48 = add i32 %47, 4
  store i32 %48, ptr %9, align 4
  %49 = load ptr, ptr %7, align 8
  %50 = load i32, ptr @hf_nfapi_timing_info_hi_dci0_jitter, align 4
  %51 = load ptr, ptr %5, align 8
  %52 = load i32, ptr %9, align 4
  %53 = call ptr @proto_tree_add_item(ptr noundef %49, i32 noundef %50, ptr noundef %51, i32 noundef %52, i32 noundef 4, i32 noundef 0)
  %54 = load i32, ptr %9, align 4
  %55 = add i32 %54, 4
  store i32 %55, ptr %9, align 4
  %56 = load ptr, ptr %7, align 8
  %57 = load i32, ptr @hf_nfapi_timing_info_dl_config_latest_delay, align 4
  %58 = load ptr, ptr %5, align 8
  %59 = load i32, ptr %9, align 4
  %60 = call ptr @proto_tree_add_item(ptr noundef %56, i32 noundef %57, ptr noundef %58, i32 noundef %59, i32 noundef 4, i32 noundef 0)
  %61 = load i32, ptr %9, align 4
  %62 = add i32 %61, 4
  store i32 %62, ptr %9, align 4
  %63 = load ptr, ptr %7, align 8
  %64 = load i32, ptr @hf_nfapi_timing_info_tx_request_latest_delay, align 4
  %65 = load ptr, ptr %5, align 8
  %66 = load i32, ptr %9, align 4
  %67 = call ptr @proto_tree_add_item(ptr noundef %63, i32 noundef %64, ptr noundef %65, i32 noundef %66, i32 noundef 4, i32 noundef 0)
  %68 = load i32, ptr %9, align 4
  %69 = add i32 %68, 4
  store i32 %69, ptr %9, align 4
  %70 = load ptr, ptr %7, align 8
  %71 = load i32, ptr @hf_nfapi_timing_info_ul_config_latest_delay, align 4
  %72 = load ptr, ptr %5, align 8
  %73 = load i32, ptr %9, align 4
  %74 = call ptr @proto_tree_add_item(ptr noundef %70, i32 noundef %71, ptr noundef %72, i32 noundef %73, i32 noundef 4, i32 noundef 0)
  %75 = load i32, ptr %9, align 4
  %76 = add i32 %75, 4
  store i32 %76, ptr %9, align 4
  %77 = load ptr, ptr %7, align 8
  %78 = load i32, ptr @hf_nfapi_timing_info_hi_dci0_latest_delay, align 4
  %79 = load ptr, ptr %5, align 8
  %80 = load i32, ptr %9, align 4
  %81 = call ptr @proto_tree_add_item(ptr noundef %77, i32 noundef %78, ptr noundef %79, i32 noundef %80, i32 noundef 4, i32 noundef 0)
  %82 = load i32, ptr %9, align 4
  %83 = add i32 %82, 4
  store i32 %83, ptr %9, align 4
  %84 = load ptr, ptr %7, align 8
  %85 = load i32, ptr @hf_nfapi_timing_info_dl_config_earliest_arrival, align 4
  %86 = load ptr, ptr %5, align 8
  %87 = load i32, ptr %9, align 4
  %88 = call ptr @proto_tree_add_item(ptr noundef %84, i32 noundef %85, ptr noundef %86, i32 noundef %87, i32 noundef 4, i32 noundef 0)
  %89 = load i32, ptr %9, align 4
  %90 = add i32 %89, 4
  store i32 %90, ptr %9, align 4
  %91 = load ptr, ptr %7, align 8
  %92 = load i32, ptr @hf_nfapi_timing_info_tx_request_earliest_arrival, align 4
  %93 = load ptr, ptr %5, align 8
  %94 = load i32, ptr %9, align 4
  %95 = call ptr @proto_tree_add_item(ptr noundef %91, i32 noundef %92, ptr noundef %93, i32 noundef %94, i32 noundef 4, i32 noundef 0)
  %96 = load i32, ptr %9, align 4
  %97 = add i32 %96, 4
  store i32 %97, ptr %9, align 4
  %98 = load ptr, ptr %7, align 8
  %99 = load i32, ptr @hf_nfapi_timing_info_ul_config_earliest_arrival, align 4
  %100 = load ptr, ptr %5, align 8
  %101 = load i32, ptr %9, align 4
  %102 = call ptr @proto_tree_add_item(ptr noundef %98, i32 noundef %99, ptr noundef %100, i32 noundef %101, i32 noundef 4, i32 noundef 0)
  %103 = load i32, ptr %9, align 4
  %104 = add i32 %103, 4
  store i32 %104, ptr %9, align 4
  %105 = load ptr, ptr %7, align 8
  %106 = load i32, ptr @hf_nfapi_timing_info_hi_dci0_earliest_arrival, align 4
  %107 = load ptr, ptr %5, align 8
  %108 = load i32, ptr %9, align 4
  %109 = call ptr @proto_tree_add_item(ptr noundef %105, i32 noundef %106, ptr noundef %107, i32 noundef %108, i32 noundef 4, i32 noundef 0)
  %110 = load i32, ptr %9, align 4
  %111 = add i32 %110, 4
  store i32 %111, ptr %9, align 4
  %112 = load i32, ptr %9, align 4
  ret i32 %112
}