; Function Attrs: nounwind uwtable
define internal noundef i32 @dissect_p7_timing_info_msg_id(ptr noundef %0, ptr readnone captures(none) %1, ptr noundef %2, ptr readnone captures(none) %3) #0 {
  tail call fastcc void @dissect_p7_header(ptr noundef %0, ptr noundef %2, ptr noundef null, ptr noundef null, ptr noundef null)
  %5 = load i32, ptr @hf_nfapi_timing_info_last_sfn_sf, align 4
  %6 = tail call ptr @proto_tree_add_item(ptr noundef %2, i32 noundef %5, ptr noundef %0, i32 noundef 16, i32 noundef 4, i32 noundef 0) #7
  %7 = load i32, ptr @hf_nfapi_timing_info_time_since_last_timing_info, align 4
  %8 = tail call ptr @proto_tree_add_item(ptr noundef %2, i32 noundef %7, ptr noundef %0, i32 noundef 20, i32 noundef 4, i32 noundef 0) #7
  %9 = load i32, ptr @hf_nfapi_timing_info_dl_config_jitter, align 4
  %10 = tail call ptr @proto_tree_add_item(ptr noundef %2, i32 noundef %9, ptr noundef %0, i32 noundef 24, i32 noundef 4, i32 noundef 0) #7
  %11 = load i32, ptr @hf_nfapi_timing_info_tx_request_jitter, align 4
  %12 = tail call ptr @proto_tree_add_item(ptr noundef %2, i32 noundef %11, ptr noundef %0, i32 noundef 28, i32 noundef 4, i32 noundef 0) #7
  %13 = load i32, ptr @hf_nfapi_timing_info_ul_config_jitter, align 4
  %14 = tail call ptr @proto_tree_add_item(ptr noundef %2, i32 noundef %13, ptr noundef %0, i32 noundef 32, i32 noundef 4, i32 noundef 0) #7
  %15 = load i32, ptr @hf_nfapi_timing_info_hi_dci0_jitter, align 4
  %16 = tail call ptr @proto_tree_add_item(ptr noundef %2, i32 noundef %15, ptr noundef %0, i32 noundef 36, i32 noundef 4, i32 noundef 0) #7
  %17 = load i32, ptr @hf_nfapi_timing_info_dl_config_latest_delay, align 4
  %18 = tail call ptr @proto_tree_add_item(ptr noundef %2, i32 noundef %17, ptr noundef %0, i32 noundef 40, i32 noundef 4, i32 noundef 0) #7
  %19 = load i32, ptr @hf_nfapi_timing_info_tx_request_latest_delay, align 4
  %20 = tail call ptr @proto_tree_add_item(ptr noundef %2, i32 noundef %19, ptr noundef %0, i32 noundef 44, i32 noundef 4, i32 noundef 0) #7
  %21 = load i32, ptr @hf_nfapi_timing_info_ul_config_latest_delay, align 4
  %22 = tail call ptr @proto_tree_add_item(ptr noundef %2, i32 noundef %21, ptr noundef %0, i32 noundef 48, i32 noundef 4, i32 noundef 0) #7
  %23 = load i32, ptr @hf_nfapi_timing_info_hi_dci0_latest_delay, align 4
  %24 = tail call ptr @proto_tree_add_item(ptr noundef %2, i32 noundef %23, ptr noundef %0, i32 noundef 52, i32 noundef 4, i32 noundef 0) #7
  %25 = load i32, ptr @hf_nfapi_timing_info_dl_config_earliest_arrival, align 4
  %26 = tail call ptr @proto_tree_add_item(ptr noundef %2, i32 noundef %25, ptr noundef %0, i32 noundef 56, i32 noundef 4, i32 noundef 0) #7
  %27 = load i32, ptr @hf_nfapi_timing_info_tx_request_earliest_arrival, align 4
  %28 = tail call ptr @proto_tree_add_item(ptr noundef %2, i32 noundef %27, ptr noundef %0, i32 noundef 60, i32 noundef 4, i32 noundef 0) #7
  %29 = load i32, ptr @hf_nfapi_timing_info_ul_config_earliest_arrival, align 4
  %30 = tail call ptr @proto_tree_add_item(ptr noundef %2, i32 noundef %29, ptr noundef %0, i32 noundef 64, i32 noundef 4, i32 noundef 0) #7
  %31 = load i32, ptr @hf_nfapi_timing_info_hi_dci0_earliest_arrival, align 4
  %32 = tail call ptr @proto_tree_add_item(ptr noundef %2, i32 noundef %31, ptr noundef %0, i32 noundef 68, i32 noundef 4, i32 noundef 0) #7
  ret i32 72
}